; Function Attrs: mustprogress uwtable
define hidden void @_ZN7grobner13del_equationsEj(ptr noundef nonnull align 8 dereferenceable(228) %this, i32 noundef %old_size) local_unnamed_addr #3 align 2 {
entry:
  %m_equations_to_delete = getelementptr inbounds i8, ptr %this, i64 160
  %0 = load ptr, ptr %m_equations_to_delete, align 8
  %cmp.i.i = icmp eq ptr %0, null
  br i1 %cmp.i.i, label %_ZN6vectorIPN7grobner8equationELb0EjE3endEv.exit, label %if.end.i.i

if.end.i.i:                                       ; preds = %entry
  %arrayidx.i.i = getelementptr inbounds i8, ptr %0, i64 -4
  %1 = load i32, ptr %arrayidx.i.i, align 4
  %2 = zext i32 %1 to i64
  br label %_ZN6vectorIPN7grobner8equationELb0EjE3endEv.exit

_ZN6vectorIPN7grobner8equationELb0EjE3endEv.exit: ; preds = %entry, %if.end.i.i
  %retval.0.i.i = phi i64 [ %2, %if.end.i.i ], [ 0, %entry ]
  %add.ptr.i = getelementptr inbounds ptr, ptr %0, i64 %retval.0.i.i
  %idx.ext = zext i32 %old_size to i64
  %cmp.not6 = icmp eq i64 %retval.0.i.i, %idx.ext
  br i1 %cmp.not6, label %for.end, label %for.body.preheader

for.body.preheader:                               ; preds = %_ZN6vectorIPN7grobner8equationELb0EjE3endEv.exit
  %add.ptr = getelementptr inbounds ptr, ptr %0, i64 %idx.ext
  br label %for.body

for.body:                                         ; preds = %for.body.preheader, %for.inc
  %it.07 = phi ptr [ %incdec.ptr, %for.inc ], [ %add.ptr, %for.body.preheader ]
  %3 = load ptr, ptr %it.07, align 8
  %tobool.not = icmp eq ptr %3, null
  br i1 %tobool.not, label %for.inc, label %if.then

if.then:                                          ; preds = %for.body
  tail call void @_ZN7grobner12del_equationEPNS_8equationE(ptr noundef nonnull align 8 dereferenceable(228) %this, ptr noundef nonnull %3)
  br label %for.inc

for.inc:                                          ; preds = %for.body, %if.then
  %incdec.ptr = getelementptr inbounds i8, ptr %it.07, i64 8
  %cmp.not = icmp eq ptr %incdec.ptr, %add.ptr.i
  br i1 %cmp.not, label %for.end.loopexit, label %for.body, !llvm.loop !4

for.end.loopexit:                                 ; preds = %for.inc
  %.pre = load ptr, ptr %m_equations_to_delete, align 8
  br label %for.end

for.end:                                          ; preds = %for.end.loopexit, %_ZN6vectorIPN7grobner8equationELb0EjE3endEv.exit
  %4 = phi ptr [ %.pre, %for.end.loopexit ], [ %0, %_ZN6vectorIPN7grobner8equationELb0EjE3endEv.exit ]
  %tobool.not.i = icmp eq ptr %4, null
  br i1 %tobool.not.i, label %_ZN6vectorIPN7grobner8equationELb0EjE6shrinkEj.exit, label %if.then.i

if.then.i:                                        ; preds = %for.end
  %arrayidx.i = getelementptr inbounds i8, ptr %4, i64 -4
  store i32 %old_size, ptr %arrayidx.i, align 4
  br label %_ZN6vectorIPN7grobner8equationELb0EjE6shrinkEj.exit

_ZN6vectorIPN7grobner8equationELb0EjE6shrinkEj.exit: ; preds = %for.end, %if.then.i
  ret void
}